target datalayout = "e-m:e-p270:32:32-p271:32:32-p272:64:64-i64:64-i128:128-f80:128-n8:16:32:64-S128"
target triple = "x86_64-pc-linux-gnu"

%struct.darktable_t = type { %struct.dt_codepath_t, i32, i32, ptr, ptr, ptr, ptr, ptr, ptr, ptr, ptr, ptr, ptr, ptr, ptr, ptr, ptr, ptr, ptr, ptr, ptr, ptr, ptr, ptr, ptr, ptr, ptr, ptr, ptr, ptr, [64 x %struct.dt_pthread_mutex_t], %struct.dt_pthread_mutex_t, %struct.dt_pthread_mutex_t, %struct.dt_pthread_mutex_t, %struct.dt_pthread_mutex_t, %struct.dt_pthread_mutex_t, ptr, ptr, ptr, ptr, ptr, ptr, ptr, ptr, ptr, ptr, ptr, ptr, ptr, %struct.dt_lua_state_t, ptr, double, ptr, i32, [47 x i32], i32, i32, ptr, ptr, %struct.dt_sys_resources_t, %struct.dt_backthumb_t, %struct.dt_gimp_t }
%struct.dt_codepath_t = type { i8, [3 x i8] }
%struct.dt_pthread_mutex_t = type { %union.pthread_mutex_t }
%union.pthread_mutex_t = type { %struct.__pthread_mutex_s }
%struct.__pthread_mutex_s = type { i32, i32, i32, i32, i32, i16, i16, %struct.__pthread_internal_list }
%struct.__pthread_internal_list = type { ptr, ptr }
%struct.dt_lua_state_t = type { i32 }
%struct.dt_sys_resources_t = type { i64, i64, ptr, ptr, i32 }
%struct.dt_backthumb_t = type { double, double, i32, i32, i32, i32 }
%struct.dt_gimp_t = type { i32, ptr, ptr, i32, i32 }
%struct.dt_lib_module_t = type { %struct.dt_action_t, ptr, ptr, ptr, ptr, ptr, ptr, ptr, ptr, ptr, ptr, ptr, ptr, ptr, ptr, ptr, ptr, ptr, ptr, ptr, ptr, ptr, ptr, ptr, ptr, ptr, ptr, ptr, ptr, ptr, ptr, [128 x i8], ptr, ptr, i32, ptr, ptr, ptr, i32 }
%struct.dt_action_t = type { i32, ptr, ptr, ptr, ptr, ptr }
%struct.dt_lib_tagging_t = type { [1024 x i8], ptr, ptr, ptr, ptr, ptr, ptr, ptr, ptr, ptr, ptr, ptr, ptr, ptr, ptr, ptr, ptr, ptr, ptr, ptr, ptr, ptr, i32, i32, i32, i32, i32, ptr, ptr, %struct.anon, i32 }
%struct.anon = type { ptr, ptr, ptr, i32, i32, i32, i32, i32 }
%struct.dt_gui_gtk_t = type { ptr, %struct.dt_gui_widgets_t, %struct.dt_gui_scrollbars_t, i32, ptr, i32, [39 x %struct._GdkRGBA], i32, i32, i32, i32, i32, double, double, double, double, ptr, double, double, double, double, i32, i32, [4096 x i8], i32, i32, i32, %struct.dt_pthread_mutex_t }
%struct.dt_gui_widgets_t = type { ptr, ptr, ptr, ptr, i32, i32, i32 }
%struct.dt_gui_scrollbars_t = type { ptr, ptr, i32 }
%struct._GdkRGBA = type { double, double, double, double }

@.str.13 = private unnamed_addr constant [16 x i8] c"key-press-event\00", align 1
@darktable = external global %struct.darktable_t, align 8
@.str.59 = private unnamed_addr constant [17 x i8] c"tagging settings\00", align 1
@.str.60 = private unnamed_addr constant [8 x i8] c"_cancel\00", align 1
@.str.61 = private unnamed_addr constant [6 x i8] c"_save\00", align 1

; Function Attrs: nounwind uwtable
define hidden void @_menuitem_preferences(ptr noundef %0, ptr noundef %1) #0 {
  %3 = alloca ptr, align 8
  %4 = alloca ptr, align 8
  %5 = alloca ptr, align 8
  %6 = alloca ptr, align 8
  %7 = alloca ptr, align 8
  store ptr %0, ptr %3, align 8, !tbaa !188
  store ptr %1, ptr %4, align 8, !tbaa !6
  call void @llvm.lifetime.start.p0(i64 8, ptr %5) #11
  %8 = load ptr, ptr getelementptr inbounds nuw (%struct.darktable_t, ptr @darktable, i32 0, i32 14), align 8, !tbaa !158
  %9 = getelementptr inbounds nuw %struct.dt_gui_gtk_t, ptr %8, i32 0, i32 0
  %10 = load ptr, ptr %9, align 8, !tbaa !165
  %11 = call ptr @dt_ui_main_window(ptr noundef %10)
  store ptr %11, ptr %5, align 8, !tbaa !108
  call void @llvm.lifetime.start.p0(i64 8, ptr %6) #11
  %12 = call ptr @dcgettext(ptr noundef null, ptr noundef @.str.59, i32 noundef 5) #11
  %13 = load ptr, ptr %5, align 8, !tbaa !108
  %14 = call i64 @gtk_window_get_type() #12
  %15 = call ptr @g_type_check_instance_cast(ptr noundef %13, i64 noundef %14)
  %16 = call ptr @dcgettext(ptr noundef null, ptr noundef @.str.60, i32 noundef 5) #11
  %17 = call ptr @dcgettext(ptr noundef null, ptr noundef @.str.61, i32 noundef 5) #11
  %18 = call ptr (ptr, ptr, i32, ptr, ...) @gtk_dialog_new_with_buttons(ptr noundef %12, ptr noundef %15, i32 noundef 2, ptr noundef %16, i32 noundef -1, ptr noundef %17, i32 noundef -3, ptr noundef null)
  store ptr %18, ptr %6, align 8, !tbaa !108
  %19 = load ptr, ptr %6, align 8, !tbaa !108
  %20 = call i64 @g_signal_connect_data(ptr noundef %19, ptr noundef @.str.13, ptr noundef @dt_handle_dialog_enter, ptr noundef null, ptr noundef null, i32 noundef 0)
  %21 = load ptr, ptr %6, align 8, !tbaa !108
  %22 = call i64 @gtk_dialog_get_type() #12
  %23 = call ptr @g_type_check_instance_cast(ptr noundef %21, i64 noundef %22)
  call void @gtk_dialog_set_default_response(ptr noundef %23, i32 noundef -3)
  %24 = load ptr, ptr %6, align 8, !tbaa !108
  %25 = call ptr @dt_prefs_init_dialog_tagging(ptr noundef %24)
  %26 = load ptr, ptr %6, align 8, !tbaa !108
  call void @gtk_widget_show_all(ptr noundef %26)
  %27 = load ptr, ptr %6, align 8, !tbaa !108
  %28 = call i64 @gtk_dialog_get_type() #12
  %29 = call ptr @g_type_check_instance_cast(ptr noundef %27, i64 noundef %28)
  %30 = call i32 @gtk_dialog_run(ptr noundef %29)
  %31 = load ptr, ptr %6, align 8, !tbaa !108
  call void @gtk_widget_destroy(ptr noundef %31)
  call void @llvm.lifetime.start.p0(i64 8, ptr %7) #11
  %32 = load ptr, ptr %4, align 8, !tbaa !6
  %33 = getelementptr inbounds nuw %struct.dt_lib_module_t, ptr %32, i32 0, i32 30
  %34 = load ptr, ptr %33, align 8, !tbaa !11
  store ptr %34, ptr %7, align 8, !tbaa !19
  call void @_size_recent_tags_list()
  %35 = load ptr, ptr %7, align 8, !tbaa !19
  %36 = getelementptr inbounds nuw %struct.dt_lib_tagging_t, ptr %35, i32 0, i32 22
  %37 = load i32, ptr %36, align 8, !tbaa !38
  %38 = icmp ne i32 %37, 0
  br i1 %38, label %47, label %39

39:                                               ; preds = %2
  %40 = load ptr, ptr %7, align 8, !tbaa !19
  %41 = getelementptr inbounds nuw %struct.dt_lib_tagging_t, ptr %40, i32 0, i32 23
  %42 = load i32, ptr %41, align 4, !tbaa !39
  %43 = icmp ne i32 %42, 0
  br i1 %43, label %44, label %47

44:                                               ; preds = %39
  %45 = load ptr, ptr %4, align 8, !tbaa !6
  call void @_init_treeview(ptr noundef %45, i32 noundef 1)
  %46 = load ptr, ptr %4, align 8, !tbaa !6
  call void @dt_lib_gui_queue_update(ptr noundef %46)
  br label %47

47:                                               ; preds = %44, %39, %2
  call void @llvm.lifetime.end.p0(i64 8, ptr %7) #11
  call void @llvm.lifetime.end.p0(i64 8, ptr %6) #11
  call void @llvm.lifetime.end.p0(i64 8, ptr %5) #11
  ret void
}