; Function Attrs: nounwind uwtable
define hidden void @_menuitem_preferences(ptr readnone captures(none) %0, ptr noundef %1) #1 {
  %3 = load ptr, ptr getelementptr inbounds nuw (i8, ptr @darktable, i64 104), align 8, !tbaa !125
  %4 = load ptr, ptr %3, align 8, !tbaa !131
  %5 = tail call ptr @dt_ui_main_window(ptr noundef %4) #16
  %6 = tail call ptr @dcgettext(ptr noundef null, ptr noundef nonnull @.str.59, i32 noundef 5) #16
  %7 = tail call i64 @gtk_window_get_type() #17
  %8 = tail call ptr @g_type_check_instance_cast(ptr noundef %5, i64 noundef %7) #16
  %9 = tail call ptr @dcgettext(ptr noundef null, ptr noundef nonnull @.str.60, i32 noundef 5) #16
  %10 = tail call ptr @dcgettext(ptr noundef null, ptr noundef nonnull @.str.61, i32 noundef 5) #16
  %11 = tail call ptr (ptr, ptr, i32, ptr, ...) @gtk_dialog_new_with_buttons(ptr noundef %6, ptr noundef %8, i32 noundef 2, ptr noundef %9, i32 noundef -1, ptr noundef %10, i32 noundef -3, ptr noundef null) #16
  %12 = tail call i64 @g_signal_connect_data(ptr noundef %11, ptr noundef nonnull @.str.13, ptr noundef nonnull @dt_handle_dialog_enter, ptr noundef null, ptr noundef null, i32 noundef 0) #16
  %13 = tail call i64 @gtk_dialog_get_type() #17
  %14 = tail call ptr @g_type_check_instance_cast(ptr noundef %11, i64 noundef %13) #16
  tail call void @gtk_dialog_set_default_response(ptr noundef %14, i32 noundef -3) #16
  %15 = tail call ptr @dt_prefs_init_dialog_tagging(ptr noundef %11) #16
  tail call void @gtk_widget_show_all(ptr noundef %11) #16
  %16 = tail call ptr @g_type_check_instance_cast(ptr noundef %11, i64 noundef %13) #16
  %17 = tail call i32 @gtk_dialog_run(ptr noundef %16) #16
  tail call void @gtk_widget_destroy(ptr noundef %11) #16
  %18 = getelementptr inbounds nuw i8, ptr %1, i64 280
  %19 = load ptr, ptr %18, align 8, !tbaa !6
  tail call fastcc void @_size_recent_tags_list()
  %20 = getelementptr inbounds nuw i8, ptr %19, i64 1192
  %21 = load i32, ptr %20, align 8, !tbaa !36
  %.not = icmp eq i32 %21, 0
  br i1 %.not, label %22, label %26

22:                                               ; preds = %2
  %23 = getelementptr inbounds nuw i8, ptr %19, i64 1196
  %24 = load i32, ptr %23, align 4, !tbaa !37
  %.not12 = icmp eq i32 %24, 0
  br i1 %.not12, label %26, label %25

25:                                               ; preds = %22
  tail call fastcc void @_init_treeview(ptr noundef nonnull %1, i32 noundef 1)
  tail call void @dt_lib_gui_queue_update(ptr noundef nonnull %1) #16
  br label %26

26:                                               ; preds = %25, %22, %2
  ret void
}